target datalayout = "e-m:e-p270:32:32-p271:32:32-p272:64:64-i64:64-i128:128-f80:128-n8:16:32:64-S128"
target triple = "x86_64-pc-linux-gnu"

%struct._zval_struct = type { %union._zend_value, %union.anon, %union.anon.2 }
%union._zend_value = type { i64 }
%union.anon = type { i32 }
%union.anon.2 = type { i32 }
%struct._zend_array = type { %struct._zend_refcounted_h, %union.anon.4, i32, %union.anon.6, i32, i32, i32, i32, i64, ptr }
%struct._zend_refcounted_h = type { i32, %union.anon.3 }
%union.anon.3 = type { i32 }
%union.anon.4 = type { i32 }
%union.anon.6 = type { ptr }
%struct._zend_string = type { %struct._zend_refcounted_h, i64, i64, [1 x i8] }
%struct._phpdbg_watchpoint_t = type { %union.anon.27, i64, i32, ptr, %struct._zend_array, ptr, %union.anon.28 }
%union.anon.27 = type { ptr }
%union.anon.28 = type { %struct._zend_array }
%struct._zend_reference = type { %struct._zend_refcounted_h, %struct._zval_struct, %union.zend_property_info_source_list }
%union.zend_property_info_source_list = type { ptr }
%struct._phpdbg_watch_element = type { i32, ptr, i8, ptr, ptr, %struct._zend_array, ptr, ptr, ptr, %union.anon.29 }
%union.anon.29 = type { %struct._zend_array }
%struct._zend_object = type { %struct._zend_refcounted_h, i32, ptr, ptr, ptr, [1 x %struct._zval_struct] }
%struct._zend_object_handlers = type { i32, ptr, ptr, ptr, ptr, ptr, ptr, ptr, ptr, ptr, ptr, ptr, ptr, ptr, ptr, ptr, ptr, ptr, ptr, ptr, ptr, ptr, ptr, ptr, ptr }

@.str.25 = private unnamed_addr constant [7 x i8] c"%.*s[]\00", align 1

; Function Attrs: nounwind uwtable
define hidden void @phpdbg_set_addr_watchpoint(ptr noundef %0, i64 noundef %1, ptr noundef %2) #0 {
  %4 = alloca ptr, align 8
  %5 = alloca i64, align 8
  %6 = alloca ptr, align 8
  store ptr %0, ptr %4, align 8
  store i64 %1, ptr %5, align 8
  store ptr %2, ptr %6, align 8
  %7 = load ptr, ptr %4, align 8
  %8 = load ptr, ptr %6, align 8
  %9 = getelementptr inbounds %struct._phpdbg_watchpoint_t, ptr %8, i32 0, i32 0
  store ptr %7, ptr %9, align 8
  %10 = load i64, ptr %5, align 8
  %11 = load ptr, ptr %6, align 8
  %12 = getelementptr inbounds %struct._phpdbg_watchpoint_t, ptr %11, i32 0, i32 1
  store i64 %10, ptr %12, align 8
  %13 = load ptr, ptr %6, align 8
  %14 = getelementptr inbounds %struct._phpdbg_watchpoint_t, ptr %13, i32 0, i32 3
  store ptr null, ptr %14, align 8
  %15 = load ptr, ptr %6, align 8
  %16 = getelementptr inbounds %struct._phpdbg_watchpoint_t, ptr %15, i32 0, i32 5
  store ptr null, ptr %16, align 8
  %17 = load ptr, ptr %6, align 8
  %18 = getelementptr inbounds %struct._phpdbg_watchpoint_t, ptr %17, i32 0, i32 4
  call void @_zend_hash_init(ptr noundef %18, i32 noundef 8, ptr noundef null, i1 noundef zeroext false)
  ret void
}

; Function Attrs: nounwind uwtable
define hidden void @phpdbg_set_ht_watchpoint(ptr noundef %0, ptr noundef %1) #0 {
  %3 = alloca ptr, align 8
  %4 = alloca ptr, align 8
  store ptr %0, ptr %3, align 8
  store ptr %1, ptr %4, align 8
  %5 = load ptr, ptr %3, align 8
  %6 = getelementptr inbounds i8, ptr %5, i64 12
  %7 = load ptr, ptr %4, align 8
  call void @phpdbg_set_addr_watchpoint(ptr noundef %6, i64 noundef 44, ptr noundef %7)
  %8 = load ptr, ptr %4, align 8
  %9 = getelementptr inbounds %struct._phpdbg_watchpoint_t, ptr %8, i32 0, i32 2
  store i32 1, ptr %9, align 8
  ret void
}

; Function Attrs: nounwind uwtable
define hidden void @phpdbg_set_bucket_watchpoint(ptr noundef %0, ptr noundef %1) #0 {
  %3 = alloca ptr, align 8
  %4 = alloca ptr, align 8
  store ptr %0, ptr %3, align 8
  store ptr %1, ptr %4, align 8
  %5 = load ptr, ptr %3, align 8
  %6 = load ptr, ptr %4, align 8
  call void @phpdbg_set_addr_watchpoint(ptr noundef %5, i64 noundef 32, ptr noundef %6)
  %7 = load ptr, ptr %4, align 8
  %8 = getelementptr inbounds %struct._phpdbg_watchpoint_t, ptr %7, i32 0, i32 2
  store i32 5, ptr %8, align 8
  ret void
}

; Function Attrs: nounwind uwtable
define hidden ptr @phpdbg_add_ht_watch_element(ptr noundef %0, ptr noundef %1) #0 {
  %3 = alloca ptr, align 8
  %4 = alloca ptr, align 8
  %5 = alloca ptr, align 8
  %6 = alloca ptr, align 8
  %7 = alloca ptr, align 8
  %8 = alloca ptr, align 8
  %9 = alloca %struct._phpdbg_watchpoint_t, align 8
  %10 = alloca ptr, align 8
  store ptr %0, ptr %7, align 8
  store ptr %1, ptr %8, align 8
  %11 = load ptr, ptr %7, align 8
  store ptr %11, ptr %3, align 8
  %12 = load ptr, ptr %3, align 8
  %13 = getelementptr inbounds %struct._zval_struct, ptr %12, i32 0, i32 1
  %14 = load i8, ptr %13, align 8
  %15 = zext i8 %14 to i32
  %16 = icmp eq i32 %15, 8
  br i1 %16, label %17, label %29

17:                                               ; preds = %2
  %18 = load ptr, ptr %7, align 8
  %19 = getelementptr inbounds %struct._zval_struct, ptr %18, i32 0, i32 0
  %20 = load ptr, ptr %19, align 8
  %21 = getelementptr inbounds %struct._zend_object, ptr %20, i32 0, i32 3
  %22 = load ptr, ptr %21, align 8
  %23 = getelementptr inbounds %struct._zend_object_handlers, ptr %22, i32 0, i32 13
  %24 = load ptr, ptr %23, align 8
  %25 = load ptr, ptr %7, align 8
  %26 = getelementptr inbounds %struct._zval_struct, ptr %25, i32 0, i32 0
  %27 = load ptr, ptr %26, align 8
  %28 = call ptr %24(ptr noundef %27)
  br label %43

29:                                               ; preds = %2
  %30 = load ptr, ptr %7, align 8
  store ptr %30, ptr %4, align 8
  %31 = load ptr, ptr %4, align 8
  %32 = getelementptr inbounds %struct._zval_struct, ptr %31, i32 0, i32 1
  %33 = load i8, ptr %32, align 8
  %34 = zext i8 %33 to i32
  %35 = icmp eq i32 %34, 7
  br i1 %35, label %36, label %40

36:                                               ; preds = %29
  %37 = load ptr, ptr %7, align 8
  %38 = getelementptr inbounds %struct._zval_struct, ptr %37, i32 0, i32 0
  %39 = load ptr, ptr %38, align 8
  br label %41

40:                                               ; preds = %29
  br label %41

41:                                               ; preds = %40, %36
  %42 = phi ptr [ %39, %36 ], [ null, %40 ]
  br label %43

43:                                               ; preds = %41, %17
  %44 = phi ptr [ %28, %17 ], [ %42, %41 ]
  store ptr %44, ptr %10, align 8
  %45 = load ptr, ptr %10, align 8
  %46 = icmp ne ptr %45, null
  br i1 %46, label %48, label %47

47:                                               ; preds = %43
  store ptr null, ptr %6, align 8
  br label %65

48:                                               ; preds = %43
  %49 = load ptr, ptr %7, align 8
  store ptr %49, ptr %5, align 8
  %50 = load ptr, ptr %5, align 8
  %51 = getelementptr inbounds %struct._zval_struct, ptr %50, i32 0, i32 1
  %52 = load i8, ptr %51, align 8
  %53 = zext i8 %52 to i32
  %54 = icmp eq i32 %53, 7
  %55 = select i1 %54, i32 4, i32 8
  %56 = load ptr, ptr %8, align 8
  %57 = getelementptr inbounds %struct._phpdbg_watch_element, ptr %56, i32 0, i32 2
  %58 = load i8, ptr %57, align 8
  %59 = sext i8 %58 to i32
  %60 = or i32 %59, %55
  %61 = trunc i32 %60 to i8
  store i8 %61, ptr %57, align 8
  %62 = load ptr, ptr %10, align 8
  call void @phpdbg_set_ht_watchpoint(ptr noundef %62, ptr noundef %9)
  %63 = load ptr, ptr %8, align 8
  %64 = call ptr @phpdbg_add_watch_element(ptr noundef %9, ptr noundef %63)
  store ptr %64, ptr %6, align 8
  br label %65

65:                                               ; preds = %48, %47
  %66 = load ptr, ptr %6, align 8
  ret ptr %66
}

; Function Attrs: nounwind uwtable
define hidden ptr @phpdbg_add_bucket_watch_element(ptr noundef %0, ptr noundef %1) #0 {
  %3 = alloca ptr, align 8
  %4 = alloca ptr, align 8
  %5 = alloca %struct._phpdbg_watchpoint_t, align 8
  store ptr %0, ptr %3, align 8
  store ptr %1, ptr %4, align 8
  %6 = load ptr, ptr %3, align 8
  call void @phpdbg_set_bucket_watchpoint(ptr noundef %6, ptr noundef %5)
  %7 = load ptr, ptr %4, align 8
  %8 = call ptr @phpdbg_add_watch_element(ptr noundef %5, ptr noundef %7)
  store ptr %8, ptr %4, align 8
  %9 = load ptr, ptr %4, align 8
  call void @phpdbg_watch_parent_ht(ptr noundef %9)
  %10 = load ptr, ptr %4, align 8
  ret ptr %10
}

; Function Attrs: nounwind uwtable
define internal i32 @phpdbg_create_array_watchpoint(ptr noundef %0, ptr noundef %1) #0 {
  %3 = alloca ptr, align 8
  %4 = alloca ptr, align 8
  %5 = alloca i32, align 4
  %6 = alloca i32, align 4
  %7 = alloca i32, align 4
  %8 = alloca ptr, align 8
  %9 = alloca ptr, align 8
  %10 = alloca ptr, align 8
  %11 = alloca ptr, align 8
  %12 = alloca ptr, align 8
  %13 = alloca i32, align 4
  %14 = alloca ptr, align 8
  %15 = alloca ptr, align 8
  %16 = alloca ptr, align 8
  %17 = alloca ptr, align 8
  %18 = alloca ptr, align 8
  store ptr %0, ptr %14, align 8
  store ptr %1, ptr %15, align 8
  %19 = load ptr, ptr %14, align 8
  store ptr %19, ptr %18, align 8
  br label %20

20:                                               ; preds = %2
  %21 = load ptr, ptr %14, align 8
  store ptr %21, ptr %10, align 8
  %22 = load ptr, ptr %10, align 8
  %23 = getelementptr inbounds %struct._zval_struct, ptr %22, i32 0, i32 1
  %24 = load i8, ptr %23, align 8
  %25 = zext i8 %24 to i32
  %26 = icmp eq i32 %25, 10
  %27 = xor i1 %26, true
  %28 = xor i1 %27, true
  %29 = zext i1 %28 to i32
  %30 = sext i32 %29 to i64
  %31 = icmp ne i64 %30, 0
  br i1 %31, label %32, label %37

32:                                               ; preds = %20
  %33 = load ptr, ptr %14, align 8
  %34 = getelementptr inbounds %struct._zval_struct, ptr %33, i32 0, i32 0
  %35 = load ptr, ptr %34, align 8
  %36 = getelementptr inbounds %struct._zend_reference, ptr %35, i32 0, i32 1
  store ptr %36, ptr %14, align 8
  br label %37

37:                                               ; preds = %32, %20
  br label %38

38:                                               ; preds = %37
  %39 = load ptr, ptr %14, align 8
  store ptr %39, ptr %11, align 8
  %40 = load ptr, ptr %11, align 8
  %41 = getelementptr inbounds %struct._zval_struct, ptr %40, i32 0, i32 1
  %42 = load i8, ptr %41, align 8
  %43 = zext i8 %42 to i32
  %44 = icmp ne i32 %43, 7
  br i1 %44, label %45, label %53

45:                                               ; preds = %38
  %46 = load ptr, ptr %14, align 8
  store ptr %46, ptr %12, align 8
  %47 = load ptr, ptr %12, align 8
  %48 = getelementptr inbounds %struct._zval_struct, ptr %47, i32 0, i32 1
  %49 = load i8, ptr %48, align 8
  %50 = zext i8 %49 to i32
  %51 = icmp ne i32 %50, 8
  br i1 %51, label %52, label %53

52:                                               ; preds = %45
  store i32 -1, ptr %13, align 4
  br label %137

53:                                               ; preds = %45, %38
  %54 = call noalias ptr @_ecalloc(i64 noundef 1, i64 noundef 176) #14
  store ptr %54, ptr %16, align 8
  %55 = load ptr, ptr %15, align 8
  %56 = getelementptr inbounds %struct._phpdbg_watch_element, ptr %55, i32 0, i32 8
  %57 = load ptr, ptr %56, align 8
  %58 = getelementptr inbounds %struct._zend_string, ptr %57, i32 0, i32 2
  %59 = load i64, ptr %58, align 8
  %60 = trunc i64 %59 to i32
  %61 = load ptr, ptr %15, align 8
  %62 = getelementptr inbounds %struct._phpdbg_watch_element, ptr %61, i32 0, i32 8
  %63 = load ptr, ptr %62, align 8
  %64 = getelementptr inbounds %struct._zend_string, ptr %63, i32 0, i32 3
  %65 = getelementptr inbounds [1 x i8], ptr %64, i64 0, i64 0
  %66 = call ptr (i64, ptr, ...) @zend_strpprintf(i64 noundef 0, ptr noundef @.str.25, i32 noundef %60, ptr noundef %65)
  store ptr %66, ptr %17, align 8
  %67 = load ptr, ptr %15, align 8
  %68 = getelementptr inbounds %struct._phpdbg_watch_element, ptr %67, i32 0, i32 8
  %69 = load ptr, ptr %68, align 8
  store ptr %69, ptr %9, align 8
  %70 = load ptr, ptr %9, align 8
  %71 = getelementptr inbounds %struct._zend_refcounted_h, ptr %70, i32 0, i32 1
  %72 = load i32, ptr %71, align 4
  store i32 %72, ptr %5, align 4
  %73 = load i32, ptr %5, align 4
  %74 = and i32 %73, 1008
  %75 = and i32 %74, 64
  %76 = icmp ne i32 %75, 0
  br i1 %76, label %100, label %77

77:                                               ; preds = %53
  %78 = load ptr, ptr %9, align 8
  store ptr %78, ptr %4, align 8
  %79 = load ptr, ptr %4, align 8
  %80 = load i32, ptr %79, align 4
  %81 = icmp ugt i32 %80, 0
  call void @llvm.assume(i1 %81)
  %82 = load ptr, ptr %4, align 8
  %83 = load i32, ptr %82, align 4
  %84 = add i32 %83, -1
  store i32 %84, ptr %82, align 4
  %85 = icmp eq i32 %84, 0
  br i1 %85, label %86, label %99

86:                                               ; preds = %77
  %87 = load ptr, ptr %9, align 8
  %88 = getelementptr inbounds %struct._zend_refcounted_h, ptr %87, i32 0, i32 1
  %89 = load i32, ptr %88, align 4
  store i32 %89, ptr %6, align 4
  %90 = load i32, ptr %6, align 4
  %91 = and i32 %90, 1008
  %92 = and i32 %91, 128
  %93 = icmp ne i32 %92, 0
  br i1 %93, label %94, label %96

94:                                               ; preds = %86
  %95 = load ptr, ptr %9, align 8
  call void @free(ptr noundef %95) #11
  br label %98

96:                                               ; preds = %86
  %97 = load ptr, ptr %9, align 8
  call void @_efree(ptr noundef %97) #11
  br label %98

98:                                               ; preds = %96, %94
  br label %99

99:                                               ; preds = %98, %77
  br label %100

100:                                              ; preds = %99, %53
  %101 = load ptr, ptr %17, align 8
  %102 = load ptr, ptr %15, align 8
  %103 = getelementptr inbounds %struct._phpdbg_watch_element, ptr %102, i32 0, i32 8
  store ptr %101, ptr %103, align 8
  %104 = load ptr, ptr %15, align 8
  %105 = getelementptr inbounds %struct._phpdbg_watch_element, ptr %104, i32 0, i32 2
  store i8 16, ptr %105, align 8
  %106 = load ptr, ptr %18, align 8
  %107 = load ptr, ptr %15, align 8
  %108 = call ptr @phpdbg_add_bucket_watch_element(ptr noundef %106, ptr noundef %107)
  %109 = load ptr, ptr %16, align 8
  %110 = load ptr, ptr %15, align 8
  %111 = getelementptr inbounds %struct._phpdbg_watch_element, ptr %110, i32 0, i32 3
  store ptr %109, ptr %111, align 8
  %112 = load ptr, ptr %16, align 8
  %113 = getelementptr inbounds %struct._phpdbg_watch_element, ptr %112, i32 0, i32 2
  store i8 1, ptr %113, align 8
  %114 = load ptr, ptr %17, align 8
  store ptr %114, ptr %8, align 8
  %115 = load ptr, ptr %8, align 8
  %116 = getelementptr inbounds %struct._zend_refcounted_h, ptr %115, i32 0, i32 1
  %117 = load i32, ptr %116, align 4
  store i32 %117, ptr %7, align 4
  %118 = load i32, ptr %7, align 4
  %119 = and i32 %118, 1008
  %120 = and i32 %119, 64
  %121 = icmp ne i32 %120, 0
  br i1 %121, label %127, label %122

122:                                              ; preds = %100
  %123 = load ptr, ptr %8, align 8
  store ptr %123, ptr %3, align 8
  %124 = load ptr, ptr %3, align 8
  %125 = load i32, ptr %124, align 4
  %126 = add i32 %125, 1
  store i32 %126, ptr %124, align 4
  br label %127

127:                                              ; preds = %122, %100
  %128 = load ptr, ptr %8, align 8
  %129 = load ptr, ptr %16, align 8
  %130 = getelementptr inbounds %struct._phpdbg_watch_element, ptr %129, i32 0, i32 8
  store ptr %128, ptr %130, align 8
  %131 = load ptr, ptr %15, align 8
  %132 = load ptr, ptr %16, align 8
  %133 = getelementptr inbounds %struct._phpdbg_watch_element, ptr %132, i32 0, i32 4
  store ptr %131, ptr %133, align 8
  %134 = load ptr, ptr %14, align 8
  %135 = load ptr, ptr %16, align 8
  %136 = call ptr @phpdbg_add_ht_watch_element(ptr noundef %134, ptr noundef %135)
  store i32 0, ptr %13, align 4
  br label %137

137:                                              ; preds = %127, %52
  %138 = load i32, ptr %13, align 4
  ret i32 %138
}