; Function Attrs: nounwind uwtable
define internal noundef i32 @phpdbg_create_array_watchpoint(ptr noundef %0, ptr noundef %1) #0 {
  %3 = alloca %struct._phpdbg_watchpoint_t, align 8
  %4 = alloca %struct._phpdbg_watchpoint_t, align 8
  %5 = getelementptr inbounds i8, ptr %0, i64 8
  %6 = load i8, ptr %5, align 8
  %7 = icmp eq i8 %6, 10
  br i1 %7, label %8, label %11

8:                                                ; preds = %2
  %9 = load ptr, ptr %0, align 8
  %10 = getelementptr inbounds i8, ptr %9, i64 8
  %.phi.trans.insert = getelementptr inbounds i8, ptr %9, i64 16
  %.pre = load i8, ptr %.phi.trans.insert, align 8
  br label %11

11:                                               ; preds = %2, %8
  %12 = phi i8 [ %.pre, %8 ], [ %6, %2 ]
  %.039 = phi ptr [ %10, %8 ], [ %0, %2 ]
  %13 = getelementptr inbounds i8, ptr %.039, i64 8
  %.off = add i8 %12, -7
  %switch = icmp ult i8 %.off, 2
  br i1 %switch, label %14, label %80

14:                                               ; preds = %11
  %15 = tail call noalias dereferenceable_or_null(176) ptr @_ecalloc(i64 noundef 1, i64 noundef 176) #19
  %16 = getelementptr inbounds i8, ptr %1, i64 112
  %17 = load ptr, ptr %16, align 8
  %18 = getelementptr inbounds i8, ptr %17, i64 16
  %19 = load i64, ptr %18, align 8
  %20 = trunc i64 %19 to i32
  %21 = getelementptr inbounds i8, ptr %17, i64 24
  %22 = tail call ptr (i64, ptr, ...) @zend_strpprintf(i64 noundef 0, ptr noundef nonnull @.str.25, i32 noundef %20, ptr noundef nonnull %21) #17
  %23 = load ptr, ptr %16, align 8
  %24 = getelementptr inbounds i8, ptr %23, i64 4
  %25 = load i32, ptr %24, align 4
  %26 = and i32 %25, 64
  %.not42 = icmp eq i32 %26, 0
  br i1 %.not42, label %27, label %36

27:                                               ; preds = %14
  %28 = load i32, ptr %23, align 4
  %29 = icmp ne i32 %28, 0
  tail call void @llvm.assume(i1 %29)
  %30 = add i32 %28, -1
  store i32 %30, ptr %23, align 4
  %31 = icmp eq i32 %30, 0
  br i1 %31, label %32, label %36

32:                                               ; preds = %27
  %33 = and i32 %25, 128
  %.not43 = icmp eq i32 %33, 0
  br i1 %.not43, label %35, label %34

34:                                               ; preds = %32
  tail call void @free(ptr noundef nonnull %23) #17
  br label %36

35:                                               ; preds = %32
  tail call void @_efree(ptr noundef nonnull %23) #17
  br label %36

36:                                               ; preds = %27, %35, %34, %14
  store ptr %22, ptr %16, align 8
  %37 = getelementptr inbounds i8, ptr %1, i64 16
  store i8 16, ptr %37, align 8
  call void @llvm.lifetime.start.p0(i64 152, ptr nonnull %4)
  store ptr %0, ptr %4, align 8
  %38 = getelementptr inbounds i8, ptr %4, i64 8
  store i64 32, ptr %38, align 8
  %39 = getelementptr inbounds i8, ptr %4, i64 24
  store ptr null, ptr %39, align 8
  %40 = getelementptr inbounds i8, ptr %4, i64 88
  store ptr null, ptr %40, align 8
  %41 = getelementptr inbounds i8, ptr %4, i64 32
  call void @_zend_hash_init(ptr noundef nonnull %41, i32 noundef 8, ptr noundef null, i1 noundef zeroext false) #17
  %42 = getelementptr inbounds i8, ptr %4, i64 16
  store i32 5, ptr %42, align 8
  %43 = call ptr @phpdbg_add_watch_element(ptr noundef nonnull %4, ptr noundef nonnull %1)
  call void @phpdbg_watch_parent_ht(ptr noundef %43)
  call void @llvm.lifetime.end.p0(i64 152, ptr nonnull %4)
  %44 = getelementptr inbounds i8, ptr %1, i64 24
  store ptr %15, ptr %44, align 8
  %45 = getelementptr inbounds i8, ptr %15, i64 16
  store i8 1, ptr %45, align 8
  %46 = getelementptr inbounds i8, ptr %22, i64 4
  %47 = load i32, ptr %46, align 4
  %48 = and i32 %47, 64
  %.not44 = icmp eq i32 %48, 0
  br i1 %.not44, label %49, label %52

49:                                               ; preds = %36
  %50 = load i32, ptr %22, align 4
  %51 = add i32 %50, 1
  store i32 %51, ptr %22, align 4
  br label %52

52:                                               ; preds = %49, %36
  %53 = getelementptr inbounds i8, ptr %15, i64 112
  store ptr %22, ptr %53, align 8
  %54 = getelementptr inbounds i8, ptr %15, i64 32
  store ptr %1, ptr %54, align 8
  call void @llvm.lifetime.start.p0(i64 152, ptr nonnull %3)
  %55 = load i8, ptr %13, align 8
  switch i8 %55, label %phpdbg_add_ht_watch_element.exit [
    i8 8, label %56
    i8 7, label %63
  ]

56:                                               ; preds = %52
  %57 = load ptr, ptr %.039, align 8
  %58 = getelementptr inbounds i8, ptr %57, i64 24
  %59 = load ptr, ptr %58, align 8
  %60 = getelementptr inbounds i8, ptr %59, i64 104
  %61 = load ptr, ptr %60, align 8
  %62 = call ptr %61(ptr noundef %57) #17
  br label %65

63:                                               ; preds = %52
  %64 = load ptr, ptr %.039, align 8
  br label %65

65:                                               ; preds = %63, %56
  %66 = phi ptr [ %62, %56 ], [ %64, %63 ]
  %.not.i = icmp eq ptr %66, null
  br i1 %.not.i, label %phpdbg_add_ht_watch_element.exit, label %67

67:                                               ; preds = %65
  %68 = load i8, ptr %13, align 8
  %69 = icmp eq i8 %68, 7
  %70 = select i1 %69, i8 4, i8 8
  %71 = load i8, ptr %45, align 8
  %72 = or i8 %70, %71
  store i8 %72, ptr %45, align 8
  %73 = getelementptr inbounds i8, ptr %66, i64 12
  store ptr %73, ptr %3, align 8
  %74 = getelementptr inbounds i8, ptr %3, i64 8
  store i64 44, ptr %74, align 8
  %75 = getelementptr inbounds i8, ptr %3, i64 24
  store ptr null, ptr %75, align 8
  %76 = getelementptr inbounds i8, ptr %3, i64 88
  store ptr null, ptr %76, align 8
  %77 = getelementptr inbounds i8, ptr %3, i64 32
  call void @_zend_hash_init(ptr noundef nonnull %77, i32 noundef 8, ptr noundef null, i1 noundef zeroext false) #17
  %78 = getelementptr inbounds i8, ptr %3, i64 16
  store i32 1, ptr %78, align 8
  %79 = call ptr @phpdbg_add_watch_element(ptr noundef nonnull %3, ptr noundef nonnull %15)
  br label %phpdbg_add_ht_watch_element.exit

phpdbg_add_ht_watch_element.exit:                 ; preds = %52, %65, %67
  call void @llvm.lifetime.end.p0(i64 152, ptr nonnull %3)
  br label %80

80:                                               ; preds = %11, %phpdbg_add_ht_watch_element.exit
  %.0 = phi i32 [ 0, %phpdbg_add_ht_watch_element.exit ], [ -1, %11 ]
  ret i32 %.0
}